target datalayout = "e-m:e-p270:32:32-p271:32:32-p272:64:64-i64:64-i128:128-f80:128-n8:16:32:64-S128"
target triple = "x86_64-pc-linux-gnu"

; Function Attrs: mustprogress nounwind uwtable
define hidden noundef i32 @_ZN11FileMapInfo9num_pathsEPKc(ptr noundef nonnull align 8 dereferenceable(40) %0, ptr noundef %1) #1 align 2 {
  %3 = alloca i32, align 4
  %4 = alloca ptr, align 8
  %5 = alloca ptr, align 8
  %6 = alloca i32, align 4
  %7 = alloca ptr, align 8
  %8 = alloca ptr, align 8
  store ptr %0, ptr %4, align 8
  store ptr %1, ptr %5, align 8
  %9 = load ptr, ptr %5, align 8
  %10 = icmp eq ptr %9, null
  br i1 %10, label %11, label %12

11:                                               ; preds = %2
  store i32 0, ptr %3, align 4
  br label %40

12:                                               ; preds = %2
  store i32 1, ptr %6, align 4
  %13 = load ptr, ptr %5, align 8
  store ptr %13, ptr %7, align 8
  br label %14

14:                                               ; preds = %37, %12
  %15 = load ptr, ptr %7, align 8
  %16 = icmp ne ptr %15, null
  br i1 %16, label %17, label %38

17:                                               ; preds = %14
  %18 = load ptr, ptr %7, align 8
  store ptr %18, ptr %8, align 8
  %19 = load ptr, ptr %7, align 8
  %20 = call noundef ptr @_ZN2os14path_separatorEv()
  %21 = call noundef ptr @strstr(ptr noundef %19, ptr noundef %20) #12
  store ptr %21, ptr %7, align 8
  %22 = load ptr, ptr %7, align 8
  %23 = icmp ne ptr %22, null
  br i1 %23, label %24, label %37

24:                                               ; preds = %17
  %25 = load ptr, ptr %7, align 8
  %26 = getelementptr inbounds i8, ptr %25, i32 1
  store ptr %26, ptr %7, align 8
  %27 = load ptr, ptr %7, align 8
  %28 = load ptr, ptr %8, align 8
  %29 = ptrtoint ptr %27 to i64
  %30 = ptrtoint ptr %28 to i64
  %31 = sub i64 %29, %30
  %32 = icmp sgt i64 %31, 1
  br i1 %32, label %33, label %36

33:                                               ; preds = %24
  %34 = load i32, ptr %6, align 4
  %35 = add nsw i32 %34, 1
  store i32 %35, ptr %6, align 4
  br label %36

36:                                               ; preds = %33, %24
  br label %37

37:                                               ; preds = %36, %17
  br label %14, !llvm.loop !19

38:                                               ; preds = %14
  %39 = load i32, ptr %6, align 4
  store i32 %39, ptr %3, align 4
  br label %40

40:                                               ; preds = %38, %11
  %41 = load i32, ptr %3, align 4
  ret i32 %41
}