; Function Attrs: mustprogress nounwind uwtable
define hidden noundef i32 @_ZN11FileMapInfo9num_pathsEPKc(ptr nocapture noundef nonnull readnone align 8 dereferenceable(40) %0, ptr noundef %1) local_unnamed_addr #0 align 2 {
  %3 = icmp eq ptr %1, null
  br i1 %3, label %.loopexit, label %select.unfold

select.unfold:                                    ; preds = %2, %select.unfold
  %.01121 = phi ptr [ %6, %select.unfold ], [ %1, %2 ]
  %.01220 = phi i32 [ %spec.select18, %select.unfold ], [ 1, %2 ]
  %4 = tail call noundef ptr @_ZN2os14path_separatorEv() #25
  %5 = tail call noundef ptr @strstr(ptr noundef nonnull dereferenceable(1) %.01121, ptr noundef nonnull dereferenceable(1) %4) #26
  %.not17 = icmp ne ptr %5, null
  %6 = getelementptr inbounds i8, ptr %5, i64 1
  %7 = ptrtoint ptr %6 to i64
  %8 = ptrtoint ptr %.01121 to i64
  %9 = sub i64 %7, %8
  %10 = icmp sgt i64 %9, 1
  %narrow = select i1 %.not17, i1 %10, i1 false
  %spec.select = zext i1 %narrow to i32
  %spec.select18 = add nuw nsw i32 %.01220, %spec.select
  br i1 %.not17, label %select.unfold, label %.loopexit

.loopexit:                                        ; preds = %select.unfold, %2
  %.0 = phi i32 [ 0, %2 ], [ %spec.select18, %select.unfold ]
  ret i32 %.0
}